target datalayout = "e-m:e-p270:32:32-p271:32:32-p272:64:64-i64:64-i128:128-f80:128-n8:16:32:64-S128"
target triple = "x86_64-pc-linux-gnu"

%struct.jv = type { i8, i8, i16, i32, %union.anon }
%union.anon = type { ptr }

@.str.154 = private unnamed_addr constant [16 x i8] c"number required\00", align 1
@.str.155 = private unnamed_addr constant [11 x i8] c"%s (%s) %s\00", align 1

; Function Attrs: nounwind uwtable
define internal { i64, ptr } @type_error(i64 %0, ptr %1, ptr noundef %2) #0 {
  %4 = alloca %struct.jv, align 8
  %5 = alloca %struct.jv, align 8
  %6 = alloca ptr, align 8
  %7 = alloca [15 x i8], align 1
  %8 = alloca ptr, align 8
  %9 = alloca %struct.jv, align 8
  %10 = getelementptr inbounds nuw { i64, ptr }, ptr %5, i32 0, i32 0
  store i64 %0, ptr %10, align 8
  %11 = getelementptr inbounds nuw { i64, ptr }, ptr %5, i32 0, i32 1
  store ptr %1, ptr %11, align 8
  store ptr %2, ptr %6, align 8, !tbaa !12
  call void @llvm.lifetime.start.p0(i64 15, ptr %7) #10
  call void @llvm.lifetime.start.p0(i64 8, ptr %8) #10
  %12 = getelementptr inbounds nuw { i64, ptr }, ptr %5, i32 0, i32 0
  %13 = load i64, ptr %12, align 8
  %14 = getelementptr inbounds nuw { i64, ptr }, ptr %5, i32 0, i32 1
  %15 = load ptr, ptr %14, align 8
  %16 = call i32 @jv_get_kind(i64 %13, ptr %15)
  %17 = call ptr @jv_kind_name(i32 noundef %16)
  store ptr %17, ptr %8, align 8, !tbaa !12
  %18 = load ptr, ptr %8, align 8, !tbaa !12
  %19 = getelementptr inbounds [15 x i8], ptr %7, i64 0, i64 0
  %20 = getelementptr inbounds nuw { i64, ptr }, ptr %5, i32 0, i32 0
  %21 = load i64, ptr %20, align 8
  %22 = getelementptr inbounds nuw { i64, ptr }, ptr %5, i32 0, i32 1
  %23 = load ptr, ptr %22, align 8
  %24 = call ptr @jv_dump_string_trunc(i64 %21, ptr %23, ptr noundef %19, i64 noundef 15)
  %25 = load ptr, ptr %6, align 8, !tbaa !12
  %26 = call { i64, ptr } (ptr, ...) @jv_string_fmt(ptr noundef @.str.155, ptr noundef %18, ptr noundef %24, ptr noundef %25)
  %27 = getelementptr inbounds nuw { i64, ptr }, ptr %9, i32 0, i32 0
  %28 = extractvalue { i64, ptr } %26, 0
  store i64 %28, ptr %27, align 8
  %29 = getelementptr inbounds nuw { i64, ptr }, ptr %9, i32 0, i32 1
  %30 = extractvalue { i64, ptr } %26, 1
  store ptr %30, ptr %29, align 8
  %31 = getelementptr inbounds nuw { i64, ptr }, ptr %9, i32 0, i32 0
  %32 = load i64, ptr %31, align 8
  %33 = getelementptr inbounds nuw { i64, ptr }, ptr %9, i32 0, i32 1
  %34 = load ptr, ptr %33, align 8
  %35 = call { i64, ptr } @jv_invalid_with_msg(i64 %32, ptr %34)
  %36 = getelementptr inbounds nuw { i64, ptr }, ptr %4, i32 0, i32 0
  %37 = extractvalue { i64, ptr } %35, 0
  store i64 %37, ptr %36, align 8
  %38 = getelementptr inbounds nuw { i64, ptr }, ptr %4, i32 0, i32 1
  %39 = extractvalue { i64, ptr } %35, 1
  store ptr %39, ptr %38, align 8
  call void @llvm.lifetime.end.p0(i64 8, ptr %8) #10
  call void @llvm.lifetime.end.p0(i64 15, ptr %7) #10
  %40 = load { i64, ptr }, ptr %4, align 8
  ret { i64, ptr } %40
}

; Function Attrs: nounwind uwtable
define internal { i64, ptr } @f_acosh(ptr noundef %0, i64 %1, ptr %2) #0 {
  %4 = alloca %struct.jv, align 8
  %5 = alloca %struct.jv, align 8
  %6 = alloca ptr, align 8
  %7 = getelementptr inbounds nuw { i64, ptr }, ptr %5, i32 0, i32 0
  store i64 %1, ptr %7, align 8
  %8 = getelementptr inbounds nuw { i64, ptr }, ptr %5, i32 0, i32 1
  store ptr %2, ptr %8, align 8
  store ptr %0, ptr %6, align 8, !tbaa !25
  %9 = getelementptr inbounds nuw { i64, ptr }, ptr %5, i32 0, i32 0
  %10 = load i64, ptr %9, align 8
  %11 = getelementptr inbounds nuw { i64, ptr }, ptr %5, i32 0, i32 1
  %12 = load ptr, ptr %11, align 8
  %13 = call i32 @jv_get_kind(i64 %10, ptr %12)
  %14 = icmp ne i32 %13, 4
  br i1 %14, label %15, label %25

15:                                               ; preds = %3
  %16 = getelementptr inbounds nuw { i64, ptr }, ptr %5, i32 0, i32 0
  %17 = load i64, ptr %16, align 8
  %18 = getelementptr inbounds nuw { i64, ptr }, ptr %5, i32 0, i32 1
  %19 = load ptr, ptr %18, align 8
  %20 = call { i64, ptr } @type_error(i64 %17, ptr %19, ptr noundef @.str.154)
  %21 = getelementptr inbounds nuw { i64, ptr }, ptr %4, i32 0, i32 0
  %22 = extractvalue { i64, ptr } %20, 0
  store i64 %22, ptr %21, align 8
  %23 = getelementptr inbounds nuw { i64, ptr }, ptr %4, i32 0, i32 1
  %24 = extractvalue { i64, ptr } %20, 1
  store ptr %24, ptr %23, align 8
  br label %41

25:                                               ; preds = %3
  %26 = getelementptr inbounds nuw { i64, ptr }, ptr %5, i32 0, i32 0
  %27 = load i64, ptr %26, align 8
  %28 = getelementptr inbounds nuw { i64, ptr }, ptr %5, i32 0, i32 1
  %29 = load ptr, ptr %28, align 8
  %30 = call double @jv_number_value(i64 %27, ptr %29)
  %31 = call double @acosh(double noundef %30) #10, !tbaa !10
  %32 = call { i64, ptr } @jv_number(double noundef %31)
  %33 = getelementptr inbounds nuw { i64, ptr }, ptr %4, i32 0, i32 0
  %34 = extractvalue { i64, ptr } %32, 0
  store i64 %34, ptr %33, align 8
  %35 = getelementptr inbounds nuw { i64, ptr }, ptr %4, i32 0, i32 1
  %36 = extractvalue { i64, ptr } %32, 1
  store ptr %36, ptr %35, align 8
  %37 = getelementptr inbounds nuw { i64, ptr }, ptr %5, i32 0, i32 0
  %38 = load i64, ptr %37, align 8
  %39 = getelementptr inbounds nuw { i64, ptr }, ptr %5, i32 0, i32 1
  %40 = load ptr, ptr %39, align 8
  call void @jv_free(i64 %38, ptr %40)
  br label %41

41:                                               ; preds = %25, %15
  %42 = load { i64, ptr }, ptr %4, align 8
  ret { i64, ptr } %42
}